; Function Attrs: nounwind uwtable
define void @Java_java_lang_ProcessHandleImpl_00024Info_initIDs(ptr noundef %0, ptr noundef %1) local_unnamed_addr #0 {
  %3 = load ptr, ptr %0, align 8
  %4 = getelementptr inbounds i8, ptr %3, i64 752
  %5 = load ptr, ptr %4, align 8
  %6 = tail call ptr %5(ptr noundef nonnull %0, ptr noundef %1, ptr noundef nonnull @.str, ptr noundef nonnull @.str.1) #11
  store ptr %6, ptr @ProcessHandleImpl_Info_commandID, align 8
  %7 = icmp eq ptr %6, null
  br i1 %7, label %37, label %8

8:                                                ; preds = %2
  %9 = load ptr, ptr %0, align 8
  %10 = getelementptr inbounds i8, ptr %9, i64 752
  %11 = load ptr, ptr %10, align 8
  %12 = tail call ptr %11(ptr noundef nonnull %0, ptr noundef %1, ptr noundef nonnull @.str.2, ptr noundef nonnull @.str.1) #11
  store ptr %12, ptr @ProcessHandleImpl_Info_commandLineID, align 8
  %13 = icmp eq ptr %12, null
  br i1 %13, label %37, label %14

14:                                               ; preds = %8
  %15 = load ptr, ptr %0, align 8
  %16 = getelementptr inbounds i8, ptr %15, i64 752
  %17 = load ptr, ptr %16, align 8
  %18 = tail call ptr %17(ptr noundef nonnull %0, ptr noundef %1, ptr noundef nonnull @.str.3, ptr noundef nonnull @.str.4) #11
  store ptr %18, ptr @ProcessHandleImpl_Info_argumentsID, align 8
  %19 = icmp eq ptr %18, null
  br i1 %19, label %37, label %20

20:                                               ; preds = %14
  %21 = load ptr, ptr %0, align 8
  %22 = getelementptr inbounds i8, ptr %21, i64 752
  %23 = load ptr, ptr %22, align 8
  %24 = tail call ptr %23(ptr noundef nonnull %0, ptr noundef %1, ptr noundef nonnull @.str.5, ptr noundef nonnull @.str.6) #11
  store ptr %24, ptr @ProcessHandleImpl_Info_totalTimeID, align 8
  %25 = icmp eq ptr %24, null
  br i1 %25, label %37, label %26

26:                                               ; preds = %20
  %27 = load ptr, ptr %0, align 8
  %28 = getelementptr inbounds i8, ptr %27, i64 752
  %29 = load ptr, ptr %28, align 8
  %30 = tail call ptr %29(ptr noundef nonnull %0, ptr noundef %1, ptr noundef nonnull @.str.7, ptr noundef nonnull @.str.6) #11
  store ptr %30, ptr @ProcessHandleImpl_Info_startTimeID, align 8
  %31 = icmp eq ptr %30, null
  br i1 %31, label %37, label %32

32:                                               ; preds = %26
  %33 = load ptr, ptr %0, align 8
  %34 = getelementptr inbounds i8, ptr %33, i64 752
  %35 = load ptr, ptr %34, align 8
  %36 = tail call ptr %35(ptr noundef nonnull %0, ptr noundef %1, ptr noundef nonnull @.str.8, ptr noundef nonnull @.str.1) #11
  store ptr %36, ptr @ProcessHandleImpl_Info_userID, align 8
  br label %37

37:                                               ; preds = %32, %26, %20, %14, %8, %2
  ret void
}